; Function Attrs: mustprogress uwtable
define void @_ZN5boost6thread6detachEv(ptr nocapture noundef nonnull align 8 dereferenceable(16) %0) local_unnamed_addr #9 align 2 personality ptr @__gxx_personality_v0 {
  %2 = alloca %"class.boost::lock_error", align 8
  %3 = alloca %"class.boost::shared_ptr", align 8
  call void @llvm.lifetime.start.p0(i64 16, ptr nonnull %3) #32
  %4 = load ptr, ptr %0, align 8, !tbaa !19
  store ptr null, ptr %0, align 8, !tbaa !19
  store ptr %4, ptr %3, align 8, !tbaa !19
  %5 = getelementptr inbounds nuw i8, ptr %0, i64 8
  %6 = getelementptr inbounds nuw i8, ptr %3, i64 8
  %7 = load ptr, ptr %5, align 8, !tbaa !30
  store ptr %7, ptr %6, align 8, !tbaa !30
  store ptr null, ptr %5, align 8, !tbaa !30
  %.not = icmp eq ptr %4, null
  br i1 %.not, label %_ZN5boost10lock_guardINS_5mutexEED2Ev.exit, label %8

8:                                                ; preds = %1
  %9 = getelementptr inbounds nuw i8, ptr %4, i64 48
  br label %10

10:                                               ; preds = %10, %8
  %11 = tail call i32 @pthread_mutex_lock(ptr noundef nonnull align 8 dereferenceable(40) %9) #32
  switch i32 %11, label %12 [
    i32 4, label %10
    i32 0, label %_ZN5boost10lock_guardINS_5mutexEEC2ERS1_.exit
  ]

12:                                               ; preds = %10
  call void @llvm.lifetime.start.p0(i64 40, ptr nonnull %2) #32
  invoke void @_ZN5boost10lock_errorC2EiPKc(ptr noundef nonnull align 8 dereferenceable(40) %2, i32 noundef %11, ptr noundef nonnull @.str.27)
          to label %.noexc unwind label %24

.noexc:                                           ; preds = %12
  invoke void @_ZN5boost15throw_exceptionINS_10lock_errorEEEvRKT_(ptr noundef nonnull align 8 dereferenceable(40) %2) #33
          to label %13 unwind label %14

13:                                               ; preds = %.noexc
  unreachable

14:                                               ; preds = %.noexc
  %15 = landingpad { ptr, i32 }
          cleanup
  call void @_ZNSt13runtime_errorD2Ev(ptr noundef nonnull align 8 dereferenceable(40) %2) #32
  call void @llvm.lifetime.end.p0(i64 40, ptr nonnull %2) #32
  br label %.body

_ZN5boost10lock_guardINS_5mutexEEC2ERS1_.exit:    ; preds = %10
  %16 = getelementptr inbounds nuw i8, ptr %4, i64 177
  %17 = load i8, ptr %16, align 1, !tbaa !81, !range !51, !noundef !52
  %18 = trunc nuw i8 %17 to i1
  br i1 %18, label %.preheader, label %19

.preheader:                                       ; preds = %19, %_ZN5boost10lock_guardINS_5mutexEEC2ERS1_.exit
  br label %26

19:                                               ; preds = %_ZN5boost10lock_guardINS_5mutexEEC2ERS1_.exit
  %20 = getelementptr inbounds nuw i8, ptr %4, i64 40
  %21 = load i64, ptr %20, align 8, !tbaa !88
  %22 = tail call i32 @pthread_detach(i64 noundef %21) #32
  store i8 1, ptr %16, align 1, !tbaa !81
  %23 = getelementptr inbounds nuw i8, ptr %4, i64 178
  store i8 1, ptr %23, align 2, !tbaa !82
  br label %.preheader

24:                                               ; preds = %12
  %25 = landingpad { ptr, i32 }
          cleanup
  br label %.body

.body:                                            ; preds = %14, %24
  %eh.lpad-body = phi { ptr, i32 } [ %25, %24 ], [ %15, %14 ]
  call void @_ZN5boost10shared_ptrINS_6detail16thread_data_baseEED2Ev(ptr noundef nonnull align 8 dereferenceable(16) %3) #32
  call void @llvm.lifetime.end.p0(i64 16, ptr nonnull %3) #32
  resume { ptr, i32 } %eh.lpad-body

26:                                               ; preds = %.preheader, %26
  %27 = tail call i32 @pthread_mutex_unlock(ptr noundef nonnull align 8 dereferenceable(40) %9) #32
  %28 = icmp eq i32 %27, 4
  br i1 %28, label %26, label %_ZN5boost10lock_guardINS_5mutexEED2Ev.exit, !llvm.loop !22

_ZN5boost10lock_guardINS_5mutexEED2Ev.exit:       ; preds = %26, %1
  %.not.i.i = icmp eq ptr %7, null
  br i1 %.not.i.i, label %_ZN5boost10shared_ptrINS_6detail16thread_data_baseEED2Ev.exit, label %29

29:                                               ; preds = %_ZN5boost10lock_guardINS_5mutexEED2Ev.exit
  %30 = getelementptr inbounds nuw i8, ptr %7, i64 8
  %31 = atomicrmw sub ptr %30, i32 1 acq_rel, align 4
  %32 = icmp eq i32 %31, 1
  br i1 %32, label %33, label %_ZN5boost10shared_ptrINS_6detail16thread_data_baseEED2Ev.exit

33:                                               ; preds = %29
  %34 = load ptr, ptr %7, align 8, !tbaa !17
  %35 = getelementptr inbounds i8, ptr %34, i64 16
  %36 = load ptr, ptr %35, align 8
  invoke void %36(ptr noundef nonnull align 8 dereferenceable(16) %7)
          to label %.noexc.i.i unwind label %44

.noexc.i.i:                                       ; preds = %33
  %37 = getelementptr inbounds nuw i8, ptr %7, i64 12
  %38 = atomicrmw sub ptr %37, i32 1 acq_rel, align 4
  %39 = icmp eq i32 %38, 1
  br i1 %39, label %40, label %_ZN5boost10shared_ptrINS_6detail16thread_data_baseEED2Ev.exit

40:                                               ; preds = %.noexc.i.i
  %41 = load ptr, ptr %7, align 8, !tbaa !17
  %42 = getelementptr inbounds i8, ptr %41, i64 24
  %43 = load ptr, ptr %42, align 8
  invoke void %43(ptr noundef nonnull align 8 dereferenceable(16) %7)
          to label %_ZN5boost10shared_ptrINS_6detail16thread_data_baseEED2Ev.exit unwind label %44

44:                                               ; preds = %40, %33
  %45 = landingpad { ptr, i32 }
          catch ptr null
  %46 = extractvalue { ptr, i32 } %45, 0
  tail call void @__clang_call_terminate(ptr %46) #34
  unreachable

_ZN5boost10shared_ptrINS_6detail16thread_data_baseEED2Ev.exit: ; preds = %_ZN5boost10lock_guardINS_5mutexEED2Ev.exit, %29, %.noexc.i.i, %40
  call void @llvm.lifetime.end.p0(i64 16, ptr nonnull %3) #32
  ret void
}